; ModuleID = '9/1378.c'
source_filename = "9/1378.c"
target datalayout = "e-m:e-p270:32:32-p271:32:32-p272:64:64-i64:64-f80:128-n8:16:32:64-S128"
target triple = "x86_64-pc-linux-gnu"

%struct.h = type { [11 x i8], i32 }

@.str = private unnamed_addr constant [3 x i8] c"%d\00", align 1
@.str.1 = private unnamed_addr constant [6 x i8] c"%s %d\00", align 1
@.str.2 = private unnamed_addr constant [4 x i8] c"%s\0A\00", align 1

; Function Attrs: noinline nounwind uwtable
define dso_local void @main() #0 {
  %1 = alloca i32, align 4
  %2 = alloca i32, align 4
  %3 = alloca i32, align 4
  %4 = alloca [100 x %struct.h], align 16
  %5 = call i32 (i8*, ...) @__isoc99_scanf(i8* getelementptr inbounds ([3 x i8], [3 x i8]* @.str, i64 0, i64 0), i32* %3)
  store i32 0, i32* %1, align 4
  br label %6

6:                                                ; preds = %21, %0
  %7 = load i32, i32* %1, align 4
  %8 = load i32, i32* %3, align 4
  %9 = icmp slt i32 %7, %8
  br i1 %9, label %10, label %24

10:                                               ; preds = %6
  %11 = load i32, i32* %1, align 4
  %12 = sext i32 %11 to i64
  %13 = getelementptr inbounds [100 x %struct.h], [100 x %struct.h]* %4, i64 0, i64 %12
  %14 = getelementptr inbounds %struct.h, %struct.h* %13, i32 0, i32 0
  %15 = getelementptr inbounds [11 x i8], [11 x i8]* %14, i64 0, i64 0
  %16 = load i32, i32* %1, align 4
  %17 = sext i32 %16 to i64
  %18 = getelementptr inbounds [100 x %struct.h], [100 x %struct.h]* %4, i64 0, i64 %17
  %19 = getelementptr inbounds %struct.h, %struct.h* %18, i32 0, i32 1
  %20 = call i32 (i8*, ...) @__isoc99_scanf(i8* getelementptr inbounds ([6 x i8], [6 x i8]* @.str.1, i64 0, i64 0), i8* %15, i32* %19)
  br label %21

21:                                               ; preds = %10
  %22 = load i32, i32* %1, align 4
  %23 = add nsw i32 %22, 1
  store i32 %23, i32* %1, align 4
  br label %6

24:                                               ; preds = %6
  store i32 100, i32* %2, align 4
  br label %25

25:                                               ; preds = %53, %24
  %26 = load i32, i32* %2, align 4
  %27 = icmp sgt i32 %26, 59
  br i1 %27, label %28, label %56

28:                                               ; preds = %25
  store i32 0, i32* %1, align 4
  br label %29

29:                                               ; preds = %49, %28
  %30 = load i32, i32* %1, align 4
  %31 = load i32, i32* %3, align 4
  %32 = icmp slt i32 %30, %31
  br i1 %32, label %33, label %52

33:                                               ; preds = %29
  %34 = load i32, i32* %2, align 4
  %35 = load i32, i32* %1, align 4
  %36 = sext i32 %35 to i64
  %37 = getelementptr inbounds [100 x %struct.h], [100 x %struct.h]* %4, i64 0, i64 %36
  %38 = getelementptr inbounds %struct.h, %struct.h* %37, i32 0, i32 1
  %39 = load i32, i32* %38, align 4
  %40 = icmp eq i32 %34, %39
  br i1 %40, label %41, label %48

41:                                               ; preds = %33
  %42 = load i32, i32* %1, align 4
  %43 = sext i32 %42 to i64
  %44 = getelementptr inbounds [100 x %struct.h], [100 x %struct.h]* %4, i64 0, i64 %43
  %45 = getelementptr inbounds %struct.h, %struct.h* %44, i32 0, i32 0
  %46 = getelementptr inbounds [11 x i8], [11 x i8]* %45, i64 0, i64 0
  %47 = call i32 (i8*, ...) @printf(i8* getelementptr inbounds ([4 x i8], [4 x i8]* @.str.2, i64 0, i64 0), i8* %46)
  br label %48

48:                                               ; preds = %41, %33
  br label %49

49:                                               ; preds = %48
  %50 = load i32, i32* %1, align 4
  %51 = add nsw i32 %50, 1
  store i32 %51, i32* %1, align 4
  br label %29

52:                                               ; preds = %29
  br label %53

53:                                               ; preds = %52
  %54 = load i32, i32* %2, align 4
  %55 = add nsw i32 %54, -1
  store i32 %55, i32* %2, align 4
  br label %25

56:                                               ; preds = %25
  store i32 0, i32* %1, align 4
  br label %57

57:                                               ; preds = %76, %56
  %58 = load i32, i32* %1, align 4
  %59 = load i32, i32* %3, align 4
  %60 = icmp slt i32 %58, %59
  br i1 %60, label %61, label %79

61:                                               ; preds = %57
  %62 = load i32, i32* %1, align 4
  %63 = sext i32 %62 to i64
  %64 = getelementptr inbounds [100 x %struct.h], [100 x %struct.h]* %4, i64 0, i64 %63
  %65 = getelementptr inbounds %struct.h, %struct.h* %64, i32 0, i32 1
  %66 = load i32, i32* %65, align 4
  %67 = icmp slt i32 %66, 60
  br i1 %67, label %68, label %75

68:                                               ; preds = %61
  %69 = load i32, i32* %1, align 4
  %70 = sext i32 %69 to i64
  %71 = getelementptr inbounds [100 x %struct.h], [100 x %struct.h]* %4, i64 0, i64 %70
  %72 = getelementptr inbounds %struct.h, %struct.h* %71, i32 0, i32 0
  %73 = getelementptr inbounds [11 x i8], [11 x i8]* %72, i64 0, i64 0
  %74 = call i32 (i8*, ...) @printf(i8* getelementptr inbounds ([4 x i8], [4 x i8]* @.str.2, i64 0, i64 0), i8* %73)
  br label %75

75:                                               ; preds = %68, %61
  br label %76

76:                                               ; preds = %75
  %77 = load i32, i32* %1, align 4
  %78 = add nsw i32 %77, 1
  store i32 %78, i32* %1, align 4
  br label %57

79:                                               ; preds = %57
  ret void
}

declare dso_local i32 @__isoc99_scanf(i8*, ...) #1

declare dso_local i32 @printf(i8*, ...) #1


!llvm.module.flags = !{!0}
!llvm.ident = !{!1}

!0 = !{i32 1, !"wchar_size", i32 4}
!1 = !{!"clang version 10.0.0-4ubuntu1 "}
